target datalayout = "e-m:e-p270:32:32-p271:32:32-p272:64:64-i64:64-i128:128-f80:128-n8:16:32:64-S128"
target triple = "x86_64-pc-linux-gnu"

%"class.fmt::v9::basic_string_view" = type { ptr, i64 }
%"class.std::__cxx11::basic_string" = type { %"struct.std::__cxx11::basic_string<char>::_Alloc_hider", i64, %union.anon.0 }
%"struct.std::__cxx11::basic_string<char>::_Alloc_hider" = type { ptr }
%union.anon.0 = type { i64, [8 x i8] }
%"struct.LIEF::ELF::CoreFile::entry_t" = type { i64, i64, i64, %"class.std::__cxx11::basic_string" }
%"class.fmt::v9::basic_format_string" = type { %"class.fmt::v9::basic_string_view" }
%"class.fmt::v9::basic_format_args" = type { i64, %union.anon.439 }
%union.anon.439 = type { ptr }
%"class.fmt::v9::format_arg_store.1190" = type { %"struct.fmt::v9::detail::arg_data.1191" }
%"struct.fmt::v9::detail::arg_data.1191" = type { [4 x %"class.fmt::v9::detail::value"] }
%"class.fmt::v9::detail::value" = type { %union.anon.440 }
%union.anon.440 = type { i128 }
%"struct.fmt::v9::detail::arg_mapper" = type { i8 }
%"struct.fmt::v9::detail::string_value" = type { ptr, i64 }

@.str.1 = private unnamed_addr constant [32 x i8] c"{}: [0x{:04x}, 0x{:04x}]@0x{:x}\00", align 1

; Function Attrs: mustprogress nounwind uwtable
define linkonce_odr hidden void @_ZN3fmt2v917basic_string_viewIcEC2ISt11char_traitsIcESaIcEEERKNSt7__cxx1112basic_stringIcT_T0_EE(ptr noundef nonnull align 8 dereferenceable(16) %0, ptr noundef nonnull align 8 dereferenceable(32) %1) unnamed_addr #1 comdat align 2 {
  %3 = alloca ptr, align 8
  %4 = alloca ptr, align 8
  store ptr %0, ptr %3, align 8
  store ptr %1, ptr %4, align 8
  %5 = load ptr, ptr %3, align 8
  %6 = getelementptr inbounds %"class.fmt::v9::basic_string_view", ptr %5, i32 0, i32 0
  %7 = load ptr, ptr %4, align 8
  %8 = call noundef ptr @_ZNKSt7__cxx1112basic_stringIcSt11char_traitsIcESaIcEE4dataEv(ptr noundef nonnull align 8 dereferenceable(32) %7) #16
  store ptr %8, ptr %6, align 8
  %9 = getelementptr inbounds %"class.fmt::v9::basic_string_view", ptr %5, i32 0, i32 1
  %10 = load ptr, ptr %4, align 8
  %11 = call noundef i64 @_ZNKSt7__cxx1112basic_stringIcSt11char_traitsIcESaIcEE4sizeEv(ptr noundef nonnull align 8 dereferenceable(32) %10) #16
  store i64 %11, ptr %9, align 8
  ret void
}

; Function Attrs: mustprogress nounwind uwtable
define linkonce_odr hidden noundef i64 @_ZNK3fmt2v917basic_string_viewIcE4sizeEv(ptr noundef nonnull align 8 dereferenceable(16) %0) #1 comdat align 2 {
  %2 = alloca ptr, align 8
  store ptr %0, ptr %2, align 8
  %3 = load ptr, ptr %2, align 8
  %4 = getelementptr inbounds %"class.fmt::v9::basic_string_view", ptr %3, i32 0, i32 1
  %5 = load i64, ptr %4, align 8
  ret i64 %5
}

; Function Attrs: mustprogress nounwind uwtable
define linkonce_odr hidden noundef ptr @_ZNK3fmt2v917basic_string_viewIcE4dataEv(ptr noundef nonnull align 8 dereferenceable(16) %0) #1 comdat align 2 {
  %2 = alloca ptr, align 8
  store ptr %0, ptr %2, align 8
  %3 = load ptr, ptr %2, align 8
  %4 = getelementptr inbounds %"class.fmt::v9::basic_string_view", ptr %3, i32 0, i32 0
  %5 = load ptr, ptr %4, align 8
  ret ptr %5
}

; Function Attrs: mustprogress nounwind uwtable
define linkonce_odr hidden { ptr, i64 } @_ZN3fmt2v96detail14to_string_viewIcSt11char_traitsIcESaIcEEENS0_17basic_string_viewIT_EERKNSt7__cxx1112basic_stringIS7_T0_T1_EE(ptr noundef nonnull align 8 dereferenceable(32) %0) #1 comdat {
  %2 = alloca %"class.fmt::v9::basic_string_view", align 8
  %3 = alloca ptr, align 8
  store ptr %0, ptr %3, align 8
  %4 = load ptr, ptr %3, align 8
  call void @_ZN3fmt2v917basic_string_viewIcEC2ISt11char_traitsIcESaIcEEERKNSt7__cxx1112basic_stringIcT_T0_EE(ptr noundef nonnull align 8 dereferenceable(16) %2, ptr noundef nonnull align 8 dereferenceable(32) %4) #16
  %5 = load { ptr, i64 }, ptr %2, align 8
  ret { ptr, i64 } %5
}

; Function Attrs: mustprogress uwtable
define linkonce_odr hidden void @_ZN3fmt2v916make_format_argsINS0_20basic_format_contextINS0_8appenderEcEEJRKNSt7__cxx1112basic_stringIcSt11char_traitsIcESaIcEEERKmSE_SE_EEENS0_16format_arg_storeIT_JDpNSt9remove_cvINSt16remove_referenceIT0_E4typeEE4typeEEEEDpOSJ_(ptr dead_on_unwind noalias writable sret(%"class.fmt::v9::format_arg_store.1190") align 16 %0, ptr noundef nonnull align 8 dereferenceable(32) %1, ptr noundef nonnull align 8 dereferenceable(8) %2, ptr noundef nonnull align 8 dereferenceable(8) %3, ptr noundef nonnull align 8 dereferenceable(8) %4) #3 comdat {
  %6 = alloca %"class.fmt::v9::basic_string_view", align 8
  %7 = alloca ptr, align 8
  %8 = alloca %"class.fmt::v9::basic_string_view", align 8
  %9 = alloca ptr, align 8
  %10 = alloca ptr, align 8
  %11 = alloca %"class.fmt::v9::detail::value", align 16
  %12 = alloca ptr, align 8
  %13 = alloca ptr, align 8
  %14 = alloca %"class.fmt::v9::basic_string_view", align 8
  %15 = alloca %"struct.fmt::v9::detail::arg_mapper", align 1
  %16 = alloca i8, align 1
  %17 = alloca i8, align 1
  %18 = alloca i8, align 1
  %19 = alloca i8, align 1
  %20 = alloca %"class.fmt::v9::basic_string_view", align 8
  %21 = alloca ptr, align 8
  %22 = alloca ptr, align 8
  %23 = alloca i32, align 4
  %24 = alloca i32, align 4
  %25 = alloca ptr, align 8
  %26 = alloca ptr, align 8
  %27 = alloca ptr, align 8
  %28 = alloca ptr, align 8
  %29 = alloca ptr, align 8
  %30 = alloca ptr, align 8
  %31 = alloca ptr, align 8
  %32 = alloca ptr, align 8
  %33 = alloca ptr, align 8
  %34 = alloca %"class.fmt::v9::detail::value", align 16
  %35 = alloca ptr, align 8
  %36 = alloca ptr, align 8
  %37 = alloca i64, align 8
  %38 = alloca ptr, align 8
  %39 = alloca i64, align 8
  %40 = alloca ptr, align 8
  %41 = alloca i64, align 8
  %42 = alloca ptr, align 8
  %43 = alloca i64, align 8
  %44 = alloca ptr, align 8
  %45 = alloca i64, align 8
  %46 = alloca ptr, align 8
  %47 = alloca i64, align 8
  %48 = alloca %"class.fmt::v9::detail::value", align 16
  %49 = alloca ptr, align 8
  %50 = alloca ptr, align 8
  %51 = alloca i64, align 8
  %52 = alloca %"struct.fmt::v9::detail::arg_mapper", align 1
  %53 = alloca i8, align 1
  %54 = alloca i8, align 1
  %55 = alloca i8, align 1
  %56 = alloca i8, align 1
  %57 = alloca %"class.fmt::v9::detail::value", align 16
  %58 = alloca ptr, align 8
  %59 = alloca ptr, align 8
  %60 = alloca i64, align 8
  %61 = alloca %"struct.fmt::v9::detail::arg_mapper", align 1
  %62 = alloca i8, align 1
  %63 = alloca i8, align 1
  %64 = alloca i8, align 1
  %65 = alloca i8, align 1
  %66 = alloca %"class.fmt::v9::detail::value", align 16
  %67 = alloca ptr, align 8
  %68 = alloca ptr, align 8
  %69 = alloca i64, align 8
  %70 = alloca %"struct.fmt::v9::detail::arg_mapper", align 1
  %71 = alloca i8, align 1
  %72 = alloca i8, align 1
  %73 = alloca i8, align 1
  %74 = alloca i8, align 1
  %75 = alloca %"class.fmt::v9::detail::value", align 16
  %76 = alloca ptr, align 8
  %77 = alloca %"class.fmt::v9::detail::value", align 16
  %78 = alloca ptr, align 8
  %79 = alloca %"class.fmt::v9::detail::value", align 16
  %80 = alloca ptr, align 8
  %81 = alloca ptr, align 8
  %82 = alloca ptr, align 8
  %83 = alloca ptr, align 8
  %84 = alloca ptr, align 8
  %85 = alloca ptr, align 8
  %86 = alloca %"class.fmt::v9::detail::value", align 16
  %87 = alloca %"class.fmt::v9::detail::value", align 16
  %88 = alloca %"class.fmt::v9::detail::value", align 16
  %89 = alloca %"class.fmt::v9::detail::value", align 16
  %90 = alloca ptr, align 8
  %91 = alloca ptr, align 8
  %92 = alloca ptr, align 8
  %93 = alloca ptr, align 8
  store ptr %1, ptr %90, align 8
  store ptr %2, ptr %91, align 8
  store ptr %3, ptr %92, align 8
  store ptr %4, ptr %93, align 8
  %94 = load ptr, ptr %90, align 8
  %95 = load ptr, ptr %91, align 8
  %96 = load ptr, ptr %92, align 8
  %97 = load ptr, ptr %93, align 8
  store ptr %0, ptr %81, align 8
  store ptr %94, ptr %82, align 8
  store ptr %95, ptr %83, align 8
  store ptr %96, ptr %84, align 8
  store ptr %97, ptr %85, align 8
  %98 = load ptr, ptr %81, align 8
  %99 = load ptr, ptr %82, align 8
  store ptr %99, ptr %35, align 8
  %100 = load ptr, ptr %35, align 8
  store ptr %100, ptr %12, align 8
  %101 = load ptr, ptr %12, align 8
  store ptr %15, ptr %9, align 8
  store ptr %101, ptr %10, align 8
  %102 = load ptr, ptr %10, align 8
  %103 = call { ptr, i64 } @_ZN3fmt2v96detail14to_string_viewIcSt11char_traitsIcESaIcEEENS0_17basic_string_viewIT_EERKNSt7__cxx1112basic_stringIS7_T0_T1_EE(ptr noundef nonnull align 8 dereferenceable(32) %102)
  %104 = extractvalue { ptr, i64 } %103, 0
  store ptr %104, ptr %8, align 8
  %105 = getelementptr inbounds { ptr, i64 }, ptr %8, i32 0, i32 1
  %106 = extractvalue { ptr, i64 } %103, 1
  store i64 %106, ptr %105, align 8
  %107 = load { ptr, i64 }, ptr %8, align 8
  %108 = extractvalue { ptr, i64 } %107, 0
  store ptr %108, ptr %14, align 8
  %109 = getelementptr inbounds { ptr, i64 }, ptr %14, i32 0, i32 1
  %110 = extractvalue { ptr, i64 } %107, 1
  store i64 %110, ptr %109, align 8
  store ptr %14, ptr %13, align 8
  store i8 1, ptr %16, align 1
  store i8 1, ptr %17, align 1
  store i8 1, ptr %18, align 1
  store i8 1, ptr %19, align 1
  %111 = load ptr, ptr %13, align 8
  call void @llvm.memcpy.p0.p0.i64(ptr align 8 %20, ptr align 8 %111, i64 16, i1 false)
  %112 = load ptr, ptr %20, align 8
  %113 = getelementptr inbounds { ptr, i64 }, ptr %20, i32 0, i32 1
  %114 = load i64, ptr %113, align 8
  store ptr %112, ptr %6, align 8
  %115 = getelementptr inbounds { ptr, i64 }, ptr %6, i32 0, i32 1
  store i64 %114, ptr %115, align 8
  store ptr %11, ptr %7, align 8
  %116 = load ptr, ptr %7, align 8
  %117 = call noundef ptr @_ZNK3fmt2v917basic_string_viewIcE4dataEv(ptr noundef nonnull align 8 dereferenceable(16) %6) #16
  store ptr %117, ptr %116, align 16
  %118 = call noundef i64 @_ZNK3fmt2v917basic_string_viewIcE4sizeEv(ptr noundef nonnull align 8 dereferenceable(16) %6) #16
  %119 = getelementptr inbounds %"struct.fmt::v9::detail::string_value", ptr %116, i32 0, i32 1
  store i64 %118, ptr %119, align 8
  %120 = load { i64, i64 }, ptr %11, align 16
  %121 = extractvalue { i64, i64 } %120, 0
  store i64 %121, ptr %34, align 16
  %122 = getelementptr inbounds { i64, i64 }, ptr %34, i32 0, i32 1
  %123 = extractvalue { i64, i64 } %120, 1
  store i64 %123, ptr %122, align 8
  %124 = load { i64, i64 }, ptr %34, align 16
  %125 = extractvalue { i64, i64 } %124, 0
  store i64 %125, ptr %86, align 16
  %126 = getelementptr inbounds { i64, i64 }, ptr %86, i32 0, i32 1
  %127 = extractvalue { i64, i64 } %124, 1
  store i64 %127, ptr %126, align 8
  %128 = load ptr, ptr %83, align 8
  store ptr %128, ptr %76, align 8
  %129 = load ptr, ptr %76, align 8
  store ptr %129, ptr %67, align 8
  %130 = load ptr, ptr %67, align 8
  %131 = load i64, ptr %130, align 8
  store ptr %70, ptr %42, align 8
  store i64 %131, ptr %43, align 8
  %132 = load i64, ptr %43, align 8
  store i64 %132, ptr %69, align 8
  store ptr %69, ptr %68, align 8
  store i8 1, ptr %71, align 1
  store i8 1, ptr %72, align 1
  store i8 1, ptr %73, align 1
  store i8 1, ptr %74, align 1
  %133 = load ptr, ptr %68, align 8
  %134 = load i64, ptr %133, align 8
  store ptr %66, ptr %36, align 8
  store i64 %134, ptr %37, align 8
  %135 = load ptr, ptr %36, align 8
  %136 = load i64, ptr %37, align 8
  store i64 %136, ptr %135, align 16
  %137 = load { i64, i64 }, ptr %66, align 16
  %138 = extractvalue { i64, i64 } %137, 0
  store i64 %138, ptr %75, align 16
  %139 = getelementptr inbounds { i64, i64 }, ptr %75, i32 0, i32 1
  %140 = extractvalue { i64, i64 } %137, 1
  store i64 %140, ptr %139, align 8
  %141 = load { i64, i64 }, ptr %75, align 16
  %142 = extractvalue { i64, i64 } %141, 0
  store i64 %142, ptr %87, align 16
  %143 = getelementptr inbounds { i64, i64 }, ptr %87, i32 0, i32 1
  %144 = extractvalue { i64, i64 } %141, 1
  store i64 %144, ptr %143, align 8
  %145 = load ptr, ptr %84, align 8
  store ptr %145, ptr %78, align 8
  %146 = load ptr, ptr %78, align 8
  store ptr %146, ptr %58, align 8
  %147 = load ptr, ptr %58, align 8
  %148 = load i64, ptr %147, align 8
  store ptr %61, ptr %44, align 8
  store i64 %148, ptr %45, align 8
  %149 = load i64, ptr %45, align 8
  store i64 %149, ptr %60, align 8
  store ptr %60, ptr %59, align 8
  store i8 1, ptr %62, align 1
  store i8 1, ptr %63, align 1
  store i8 1, ptr %64, align 1
  store i8 1, ptr %65, align 1
  %150 = load ptr, ptr %59, align 8
  %151 = load i64, ptr %150, align 8
  store ptr %57, ptr %38, align 8
  store i64 %151, ptr %39, align 8
  %152 = load ptr, ptr %38, align 8
  %153 = load i64, ptr %39, align 8
  store i64 %153, ptr %152, align 16
  %154 = load { i64, i64 }, ptr %57, align 16
  %155 = extractvalue { i64, i64 } %154, 0
  store i64 %155, ptr %77, align 16
  %156 = getelementptr inbounds { i64, i64 }, ptr %77, i32 0, i32 1
  %157 = extractvalue { i64, i64 } %154, 1
  store i64 %157, ptr %156, align 8
  %158 = load { i64, i64 }, ptr %77, align 16
  %159 = extractvalue { i64, i64 } %158, 0
  store i64 %159, ptr %88, align 16
  %160 = getelementptr inbounds { i64, i64 }, ptr %88, i32 0, i32 1
  %161 = extractvalue { i64, i64 } %158, 1
  store i64 %161, ptr %160, align 8
  %162 = load ptr, ptr %85, align 8
  store ptr %162, ptr %80, align 8
  %163 = load ptr, ptr %80, align 8
  store ptr %163, ptr %49, align 8
  %164 = load ptr, ptr %49, align 8
  %165 = load i64, ptr %164, align 8
  store ptr %52, ptr %46, align 8
  store i64 %165, ptr %47, align 8
  %166 = load i64, ptr %47, align 8
  store i64 %166, ptr %51, align 8
  store ptr %51, ptr %50, align 8
  store i8 1, ptr %53, align 1
  store i8 1, ptr %54, align 1
  store i8 1, ptr %55, align 1
  store i8 1, ptr %56, align 1
  %167 = load ptr, ptr %50, align 8
  %168 = load i64, ptr %167, align 8
  store ptr %48, ptr %40, align 8
  store i64 %168, ptr %41, align 8
  %169 = load ptr, ptr %40, align 8
  %170 = load i64, ptr %41, align 8
  store i64 %170, ptr %169, align 16
  %171 = load { i64, i64 }, ptr %48, align 16
  %172 = extractvalue { i64, i64 } %171, 0
  store i64 %172, ptr %79, align 16
  %173 = getelementptr inbounds { i64, i64 }, ptr %79, i32 0, i32 1
  %174 = extractvalue { i64, i64 } %171, 1
  store i64 %174, ptr %173, align 8
  %175 = load { i64, i64 }, ptr %79, align 16
  %176 = extractvalue { i64, i64 } %175, 0
  store i64 %176, ptr %89, align 16
  %177 = getelementptr inbounds { i64, i64 }, ptr %89, i32 0, i32 1
  %178 = extractvalue { i64, i64 } %175, 1
  store i64 %178, ptr %177, align 8
  store ptr %98, ptr %29, align 8
  store ptr %86, ptr %30, align 8
  store ptr %87, ptr %31, align 8
  store ptr %88, ptr %32, align 8
  store ptr %89, ptr %33, align 8
  %179 = load ptr, ptr %29, align 8
  %180 = load ptr, ptr %30, align 8
  call void @llvm.memcpy.p0.p0.i64(ptr align 16 %179, ptr align 16 %180, i64 16, i1 false)
  %181 = getelementptr inbounds %"class.fmt::v9::detail::value", ptr %179, i64 1
  %182 = load ptr, ptr %31, align 8
  call void @llvm.memcpy.p0.p0.i64(ptr align 16 %181, ptr align 16 %182, i64 16, i1 false)
  %183 = getelementptr inbounds %"class.fmt::v9::detail::value", ptr %181, i64 1
  %184 = load ptr, ptr %32, align 8
  call void @llvm.memcpy.p0.p0.i64(ptr align 16 %183, ptr align 16 %184, i64 16, i1 false)
  %185 = getelementptr inbounds %"class.fmt::v9::detail::value", ptr %183, i64 1
  %186 = load ptr, ptr %33, align 8
  call void @llvm.memcpy.p0.p0.i64(ptr align 16 %185, ptr align 16 %186, i64 16, i1 false)
  store ptr %98, ptr %21, align 8
  %187 = load ptr, ptr %82, align 8
  %188 = load ptr, ptr %83, align 8
  %189 = load ptr, ptr %84, align 8
  %190 = load ptr, ptr %85, align 8
  store ptr null, ptr %22, align 8
  store i32 0, ptr %23, align 4
  store i32 0, ptr %24, align 4
  store ptr %187, ptr %25, align 8
  store ptr %188, ptr %26, align 8
  store ptr %189, ptr %27, align 8
  store ptr %190, ptr %28, align 8
  ret void
}

; Function Attrs: mustprogress nounwind uwtable
define linkonce_odr hidden noundef i64 @_ZNSt11char_traitsIcE6lengthEPKc(ptr noundef %0) #1 comdat align 2 {
  %2 = alloca ptr, align 8
  store ptr %0, ptr %2, align 8
  %3 = load ptr, ptr %2, align 8
  %4 = call i64 @strlen(ptr noundef %3) #16
  ret i64 %4
}

; Function Attrs: mustprogress uwtable
define noundef nonnull align 8 dereferenceable(8) ptr @_ZN4LIEF3ELFlsERSoRKNS0_8CoreFile7entry_tE(ptr noundef nonnull align 8 dereferenceable(8) %0, ptr noundef nonnull align 8 dereferenceable(56) %1) #3 personality ptr @__gxx_personality_v0 {
  %3 = alloca ptr, align 8
  %4 = alloca ptr, align 8
  %5 = alloca ptr, align 8
  %6 = alloca i64, align 8
  %7 = alloca ptr, align 8
  %8 = alloca ptr, align 8
  %9 = alloca ptr, align 8
  %10 = alloca %"class.fmt::v9::basic_string_view", align 8
  %11 = alloca ptr, align 8
  %12 = alloca ptr, align 8
  %13 = alloca ptr, align 8
  %14 = alloca ptr, align 8
  %15 = alloca ptr, align 8
  %16 = alloca ptr, align 8
  %17 = alloca %"class.fmt::v9::basic_format_string", align 8
  %18 = alloca ptr, align 8
  %19 = alloca ptr, align 8
  %20 = alloca ptr, align 8
  %21 = alloca ptr, align 8
  %22 = alloca %"class.fmt::v9::basic_string_view", align 8
  %23 = alloca %"class.fmt::v9::basic_format_args", align 8
  %24 = alloca %"class.fmt::v9::format_arg_store.1190", align 16
  %25 = alloca ptr, align 8
  %26 = alloca ptr, align 8
  %27 = alloca %"class.std::__cxx11::basic_string", align 8
  %28 = alloca %"class.fmt::v9::basic_format_string", align 8
  %29 = alloca ptr, align 8
  %30 = alloca i32, align 4
  store ptr %0, ptr %25, align 8
  store ptr %1, ptr %26, align 8
  %31 = load ptr, ptr %25, align 8
  store ptr %28, ptr %14, align 8
  store ptr @.str.1, ptr %15, align 8
  %32 = load ptr, ptr %14, align 8
  %33 = load ptr, ptr %15, align 8
  store ptr %32, ptr %12, align 8
  store ptr %33, ptr %13, align 8
  %34 = load ptr, ptr %12, align 8
  %35 = load ptr, ptr %13, align 8
  store ptr %35, ptr %34, align 8
  %36 = getelementptr inbounds %"class.fmt::v9::basic_string_view", ptr %34, i32 0, i32 1
  %37 = load ptr, ptr %13, align 8
  %38 = call noundef i64 @_ZNSt11char_traitsIcE6lengthEPKc(ptr noundef %37)
  store i64 %38, ptr %36, align 8
  %39 = load ptr, ptr %15, align 8
  store ptr %39, ptr %3, align 8
  %40 = load ptr, ptr %26, align 8
  %41 = getelementptr inbounds %"struct.LIEF::ELF::CoreFile::entry_t", ptr %40, i32 0, i32 3
  %42 = load ptr, ptr %26, align 8
  %43 = getelementptr inbounds %"struct.LIEF::ELF::CoreFile::entry_t", ptr %42, i32 0, i32 0
  %44 = load ptr, ptr %26, align 8
  %45 = getelementptr inbounds %"struct.LIEF::ELF::CoreFile::entry_t", ptr %44, i32 0, i32 1
  %46 = load ptr, ptr %26, align 8
  %47 = getelementptr inbounds %"struct.LIEF::ELF::CoreFile::entry_t", ptr %46, i32 0, i32 2
  %48 = getelementptr inbounds { ptr, i64 }, ptr %28, i32 0, i32 0
  %49 = load ptr, ptr %48, align 8
  %50 = getelementptr inbounds { ptr, i64 }, ptr %28, i32 0, i32 1
  %51 = load i64, ptr %50, align 8
  call void @llvm.experimental.noalias.scope.decl(metadata !9)
  store ptr %27, ptr %16, align 8, !noalias !9
  store ptr %49, ptr %17, align 8, !noalias !9
  %52 = getelementptr inbounds { ptr, i64 }, ptr %17, i32 0, i32 1
  store i64 %51, ptr %52, align 8, !noalias !9
  store ptr %41, ptr %18, align 8, !noalias !9
  store ptr %43, ptr %19, align 8, !noalias !9
  store ptr %45, ptr %20, align 8, !noalias !9
  store ptr %47, ptr %21, align 8, !noalias !9
  store ptr %17, ptr %11, align 8
  %53 = load ptr, ptr %11, align 8
  call void @llvm.memcpy.p0.p0.i64(ptr align 8 %10, ptr align 8 %53, i64 16, i1 false)
  %54 = load { ptr, i64 }, ptr %10, align 8
  %55 = extractvalue { ptr, i64 } %54, 0
  store ptr %55, ptr %22, align 8, !noalias !9
  %56 = getelementptr inbounds { ptr, i64 }, ptr %22, i32 0, i32 1
  %57 = extractvalue { ptr, i64 } %54, 1
  store i64 %57, ptr %56, align 8, !noalias !9
  %58 = load ptr, ptr %18, align 8, !noalias !9
  %59 = load ptr, ptr %19, align 8, !noalias !9
  %60 = load ptr, ptr %20, align 8, !noalias !9
  %61 = load ptr, ptr %21, align 8, !noalias !9
  call void @_ZN3fmt2v916make_format_argsINS0_20basic_format_contextINS0_8appenderEcEEJRKNSt7__cxx1112basic_stringIcSt11char_traitsIcESaIcEEERKmSE_SE_EEENS0_16format_arg_storeIT_JDpNSt9remove_cvINSt16remove_referenceIT0_E4typeEE4typeEEEEDpOSJ_(ptr dead_on_unwind writable sret(%"class.fmt::v9::format_arg_store.1190") align 16 %24, ptr noundef nonnull align 8 dereferenceable(32) %58, ptr noundef nonnull align 8 dereferenceable(8) %59, ptr noundef nonnull align 8 dereferenceable(8) %60, ptr noundef nonnull align 8 dereferenceable(8) %61)
  store ptr %23, ptr %8, align 8
  store ptr %24, ptr %9, align 8
  %62 = load ptr, ptr %8, align 8
  %63 = load ptr, ptr %9, align 8
  store ptr %63, ptr %4, align 8
  %64 = load ptr, ptr %4, align 8
  store ptr %62, ptr %5, align 8
  store i64 17485, ptr %6, align 8
  store ptr %64, ptr %7, align 8
  %65 = load ptr, ptr %5, align 8
  %66 = load i64, ptr %6, align 8
  store i64 %66, ptr %65, align 8
  %67 = getelementptr inbounds %"class.fmt::v9::basic_format_args", ptr %65, i32 0, i32 1
  %68 = load ptr, ptr %7, align 8
  store ptr %68, ptr %67, align 8
  %69 = load ptr, ptr %22, align 8, !noalias !9
  %70 = getelementptr inbounds { ptr, i64 }, ptr %22, i32 0, i32 1
  %71 = load i64, ptr %70, align 8, !noalias !9
  %72 = load i64, ptr %23, align 8, !noalias !9
  %73 = getelementptr inbounds { i64, ptr }, ptr %23, i32 0, i32 1
  %74 = load ptr, ptr %73, align 8, !noalias !9
  call void @_ZN3fmt2v97vformatB5cxx11ENS0_17basic_string_viewIcEENS0_17basic_format_argsINS0_20basic_format_contextINS0_8appenderEcEEEE(ptr dead_on_unwind writable sret(%"class.std::__cxx11::basic_string") align 8 %27, ptr %69, i64 %71, i64 %72, ptr %74)
  %75 = invoke noundef nonnull align 8 dereferenceable(8) ptr @_ZStlsIcSt11char_traitsIcESaIcEERSt13basic_ostreamIT_T0_ES7_RKNSt7__cxx1112basic_stringIS4_S5_T1_EE(ptr noundef nonnull align 8 dereferenceable(8) %31, ptr noundef nonnull align 8 dereferenceable(32) %27)
          to label %76 unwind label %78

76:                                               ; preds = %2
  call void @_ZNSt7__cxx1112basic_stringIcSt11char_traitsIcESaIcEED1Ev(ptr noundef nonnull align 8 dereferenceable(32) %27) #16
  %77 = load ptr, ptr %25, align 8
  ret ptr %77

78:                                               ; preds = %2
  %79 = landingpad { ptr, i32 }
          cleanup
  %80 = extractvalue { ptr, i32 } %79, 0
  store ptr %80, ptr %29, align 8
  %81 = extractvalue { ptr, i32 } %79, 1
  store i32 %81, ptr %30, align 4
  call void @_ZNSt7__cxx1112basic_stringIcSt11char_traitsIcESaIcEED1Ev(ptr noundef nonnull align 8 dereferenceable(32) %27) #16
  br label %82

82:                                               ; preds = %78
  %83 = load ptr, ptr %29, align 8
  %84 = load i32, ptr %30, align 4
  %85 = insertvalue { ptr, i32 } poison, ptr %83, 0
  %86 = insertvalue { ptr, i32 } %85, i32 %84, 1
  resume { ptr, i32 } %86
}