; Function Attrs: mustprogress uwtable
define noundef nonnull align 8 dereferenceable(8) ptr @_ZN4LIEF3ELFlsERSoRKNS0_8CoreFile7entry_tE(ptr noundef nonnull returned align 8 dereferenceable(8) %0, ptr noundef nonnull align 8 dereferenceable(56) %1) local_unnamed_addr #3 personality ptr @__gxx_personality_v0 {
  %3 = alloca %"class.fmt::v9::format_arg_store.1190", align 16
  %4 = alloca %"class.std::__cxx11::basic_string", align 8
  %5 = getelementptr inbounds i8, ptr %1, i64 24
  %6 = getelementptr inbounds i8, ptr %1, i64 8
  %7 = getelementptr inbounds i8, ptr %1, i64 16
  tail call void @llvm.experimental.noalias.scope.decl(metadata !26)
  %8 = tail call noundef ptr @_ZNKSt7__cxx1112basic_stringIcSt11char_traitsIcESaIcEE4dataEv(ptr noundef nonnull align 8 dereferenceable(32) %5) #19, !noalias !26
  %9 = tail call noundef i64 @_ZNKSt7__cxx1112basic_stringIcSt11char_traitsIcESaIcEE4sizeEv(ptr noundef nonnull align 8 dereferenceable(32) %5) #19, !noalias !26
  %10 = ptrtoint ptr %8 to i64
  %11 = load i64, ptr %1, align 8, !noalias !26
  %12 = load i64, ptr %6, align 8, !noalias !26
  %13 = load i64, ptr %7, align 8, !noalias !26
  store i64 %10, ptr %3, align 16, !alias.scope !26
  %.sroa.289.0..sroa_idx.i = getelementptr inbounds i8, ptr %3, i64 8
  store i64 %9, ptr %.sroa.289.0..sroa_idx.i, align 8, !alias.scope !26
  %14 = getelementptr inbounds i8, ptr %3, i64 16
  store i64 %11, ptr %14, align 16, !alias.scope !26
  %15 = getelementptr inbounds i8, ptr %3, i64 32
  store i64 %12, ptr %15, align 16, !alias.scope !26
  %16 = getelementptr inbounds i8, ptr %3, i64 48
  store i64 %13, ptr %16, align 16, !alias.scope !26
  call void @_ZN3fmt2v97vformatB5cxx11ENS0_17basic_string_viewIcEENS0_17basic_format_argsINS0_20basic_format_contextINS0_8appenderEcEEEE(ptr dead_on_unwind nonnull writable sret(%"class.std::__cxx11::basic_string") align 8 %4, ptr nonnull @.str.1, i64 31, i64 17485, ptr nonnull %3)
  %17 = invoke noundef nonnull align 8 dereferenceable(8) ptr @_ZStlsIcSt11char_traitsIcESaIcEERSt13basic_ostreamIT_T0_ES7_RKNSt7__cxx1112basic_stringIS4_S5_T1_EE(ptr noundef nonnull align 8 dereferenceable(8) %0, ptr noundef nonnull align 8 dereferenceable(32) %4)
          to label %18 unwind label %19

18:                                               ; preds = %2
  call void @_ZNSt7__cxx1112basic_stringIcSt11char_traitsIcESaIcEED1Ev(ptr noundef nonnull align 8 dereferenceable(32) %4) #19
  ret ptr %0

19:                                               ; preds = %2
  %20 = landingpad { ptr, i32 }
          cleanup
  call void @_ZNSt7__cxx1112basic_stringIcSt11char_traitsIcESaIcEED1Ev(ptr noundef nonnull align 8 dereferenceable(32) %4) #19
  resume { ptr, i32 } %20
}